target datalayout = "e-m:e-p270:32:32-p271:32:32-p272:64:64-i64:64-i128:128-f80:128-n8:16:32:64-S128"
target triple = "x86_64-pc-linux-gnu"

%struct.ossl_passphrase_data_st = type { i32, %union.anon, i8, ptr, i64 }
%union.anon = type { %struct.anon }
%struct.anon = type { ptr, i64 }
%struct.anon.2 = type { ptr, ptr }

@.str = private unnamed_addr constant [31 x i8] c"../openssl/crypto/passphrase.c\00", align 1
@__func__.ossl_pw_set_ui_method = private unnamed_addr constant [22 x i8] c"ossl_pw_set_ui_method\00", align 1

; Function Attrs: nounwind uwtable
define void @ossl_pw_clear_passphrase_cache(ptr noundef %0) #0 {
  %2 = alloca ptr, align 8
  store ptr %0, ptr %2, align 8, !tbaa !3
  %3 = load ptr, ptr %2, align 8, !tbaa !3
  %4 = getelementptr inbounds nuw %struct.ossl_passphrase_data_st, ptr %3, i32 0, i32 3
  %5 = load ptr, ptr %4, align 8, !tbaa !14
  %6 = load ptr, ptr %2, align 8, !tbaa !3
  %7 = getelementptr inbounds nuw %struct.ossl_passphrase_data_st, ptr %6, i32 0, i32 4
  %8 = load i64, ptr %7, align 8, !tbaa !15
  call void @CRYPTO_clear_free(ptr noundef %5, i64 noundef %8, ptr noundef @.str, i32 noundef 29)
  %9 = load ptr, ptr %2, align 8, !tbaa !3
  %10 = getelementptr inbounds nuw %struct.ossl_passphrase_data_st, ptr %9, i32 0, i32 3
  store ptr null, ptr %10, align 8, !tbaa !14
  ret void
}

; Function Attrs: nounwind uwtable
define void @ossl_pw_clear_passphrase_data(ptr noundef %0) #0 {
  %2 = alloca ptr, align 8
  store ptr %0, ptr %2, align 8, !tbaa !3
  %3 = load ptr, ptr %2, align 8, !tbaa !3
  %4 = icmp ne ptr %3, null
  br i1 %4, label %5, label %22

5:                                                ; preds = %1
  %6 = load ptr, ptr %2, align 8, !tbaa !3
  %7 = getelementptr inbounds nuw %struct.ossl_passphrase_data_st, ptr %6, i32 0, i32 0
  %8 = load i32, ptr %7, align 8, !tbaa !8
  %9 = icmp eq i32 %8, 1
  br i1 %9, label %10, label %19

10:                                               ; preds = %5
  %11 = load ptr, ptr %2, align 8, !tbaa !3
  %12 = getelementptr inbounds nuw %struct.ossl_passphrase_data_st, ptr %11, i32 0, i32 1
  %13 = getelementptr inbounds nuw %struct.anon, ptr %12, i32 0, i32 0
  %14 = load ptr, ptr %13, align 8, !tbaa !13
  %15 = load ptr, ptr %2, align 8, !tbaa !3
  %16 = getelementptr inbounds nuw %struct.ossl_passphrase_data_st, ptr %15, i32 0, i32 1
  %17 = getelementptr inbounds nuw %struct.anon, ptr %16, i32 0, i32 1
  %18 = load i64, ptr %17, align 8, !tbaa !13
  call void @CRYPTO_clear_free(ptr noundef %14, i64 noundef %18, ptr noundef @.str, i32 noundef 21)
  br label %19

19:                                               ; preds = %10, %5
  %20 = load ptr, ptr %2, align 8, !tbaa !3
  call void @ossl_pw_clear_passphrase_cache(ptr noundef %20)
  %21 = load ptr, ptr %2, align 8, !tbaa !3
  call void @llvm.memset.p0.i64(ptr align 8 %21, i8 0, i64 48, i1 false)
  br label %22

22:                                               ; preds = %19, %1
  ret void
}

; Function Attrs: nounwind uwtable
define i32 @ossl_pw_set_ui_method(ptr noundef %0, ptr noundef %1, ptr noundef %2) #0 {
  %4 = alloca i32, align 4
  %5 = alloca ptr, align 8
  %6 = alloca ptr, align 8
  %7 = alloca ptr, align 8
  store ptr %0, ptr %5, align 8, !tbaa !3
  store ptr %1, ptr %6, align 8, !tbaa !19
  store ptr %2, ptr %7, align 8, !tbaa !18
  %8 = load ptr, ptr %5, align 8, !tbaa !3
  %9 = icmp ne ptr %8, null
  br i1 %9, label %10, label %13

10:                                               ; preds = %3
  %11 = load ptr, ptr %6, align 8, !tbaa !19
  %12 = icmp ne ptr %11, null
  br label %13

13:                                               ; preds = %10, %3
  %14 = phi i1 [ false, %3 ], [ %12, %10 ]
  %15 = zext i1 %14 to i32
  %16 = icmp ne i32 %15, 0
  %17 = xor i1 %16, true
  %18 = xor i1 %17, true
  %19 = zext i1 %18 to i32
  %20 = sext i32 %19 to i64
  %21 = call i64 @llvm.expect.i64(i64 %20, i64 1)
  %22 = icmp ne i64 %21, 0
  br i1 %22, label %24, label %23

23:                                               ; preds = %13
  call void @ERR_new()
  call void @ERR_set_debug(ptr noundef @.str, i32 noundef 84, ptr noundef @__func__.ossl_pw_set_ui_method)
  call void (i32, i32, ptr, ...) @ERR_set_error(i32 noundef 15, i32 noundef 786690, ptr noundef null)
  store i32 0, ptr %4, align 4
  br label %36

24:                                               ; preds = %13
  %25 = load ptr, ptr %5, align 8, !tbaa !3
  call void @ossl_pw_clear_passphrase_data(ptr noundef %25)
  %26 = load ptr, ptr %5, align 8, !tbaa !3
  %27 = getelementptr inbounds nuw %struct.ossl_passphrase_data_st, ptr %26, i32 0, i32 0
  store i32 4, ptr %27, align 8, !tbaa !8
  %28 = load ptr, ptr %6, align 8, !tbaa !19
  %29 = load ptr, ptr %5, align 8, !tbaa !3
  %30 = getelementptr inbounds nuw %struct.ossl_passphrase_data_st, ptr %29, i32 0, i32 1
  %31 = getelementptr inbounds nuw %struct.anon.2, ptr %30, i32 0, i32 0
  store ptr %28, ptr %31, align 8, !tbaa !13
  %32 = load ptr, ptr %7, align 8, !tbaa !18
  %33 = load ptr, ptr %5, align 8, !tbaa !3
  %34 = getelementptr inbounds nuw %struct.ossl_passphrase_data_st, ptr %33, i32 0, i32 1
  %35 = getelementptr inbounds nuw %struct.anon.2, ptr %34, i32 0, i32 1
  store ptr %32, ptr %35, align 8, !tbaa !13
  store i32 1, ptr %4, align 4
  br label %36

36:                                               ; preds = %24, %23
  %37 = load i32, ptr %4, align 4
  ret i32 %37
}